target datalayout = "e-m:e-p270:32:32-p271:32:32-p272:64:64-i64:64-i128:128-f80:128-n8:16:32:64-S128"
target triple = "x86_64-pc-linux-gnu"

%"class.net::TcpCubicSenderBytes" = type { %"class.net::TcpCubicSenderBase.base", %"class.net::CubicBytes", i64, i64, i64, i64, i64, i64, i64, i64 }
%"class.net::TcpCubicSenderBase.base" = type <{ %"class.net::SendAlgorithmInterface", %"class.net::HybridSlowStart", %"class.net::PrrSender", ptr, ptr, i8, [3 x i8], i32, i64, i64, i64, i8, i8, i8, i8, i8 }>
%"class.net::SendAlgorithmInterface" = type { ptr }
%"class.net::HybridSlowStart" = type { i8, i32, i64, i64, i32, %"class.net::QuicTime::Delta" }
%"class.net::QuicTime::Delta" = type { %"class.base::TimeDelta", i64 }
%"class.base::TimeDelta" = type { i64 }
%"class.net::PrrSender" = type { i64, i64, i64, i64 }
%"class.net::CubicBytes" = type { ptr, i32, %"class.net::QuicTime", %"class.net::QuicTime", i64, i64, i64, i64, i64, i32, i64 }
%"class.net::QuicTime" = type { i64 }

; Function Attrs: mustprogress uwtable
define void @_ZN3net19TcpCubicSenderBytesC2EPKNS_9QuicClockEPKNS_8RttStatsEbmmPNS_19QuicConnectionStatsE(ptr noundef nonnull align 8 dereferenceable(296) %0, ptr noundef %1, ptr noundef %2, i1 noundef zeroext %3, i64 noundef %4, i64 noundef %5, ptr noundef %6) unnamed_addr #0 align 2 personality ptr @__gxx_personality_v0 {
  %8 = alloca ptr, align 8
  %9 = alloca ptr, align 8
  %10 = alloca ptr, align 8
  %11 = alloca i8, align 1
  %12 = alloca i64, align 8
  %13 = alloca i64, align 8
  %14 = alloca ptr, align 8
  %15 = alloca ptr, align 8
  %16 = alloca i32, align 4
  store ptr %0, ptr %8, align 8, !tbaa !3
  store ptr %1, ptr %9, align 8, !tbaa !8
  store ptr %2, ptr %10, align 8, !tbaa !10
  %17 = zext i1 %3 to i8
  store i8 %17, ptr %11, align 1, !tbaa !12
  store i64 %4, ptr %12, align 8, !tbaa !14
  store i64 %5, ptr %13, align 8, !tbaa !14
  store ptr %6, ptr %14, align 8, !tbaa !16
  %18 = load ptr, ptr %8, align 8
  %19 = load ptr, ptr %9, align 8, !tbaa !8
  %20 = load ptr, ptr %10, align 8, !tbaa !10
  %21 = load i8, ptr %11, align 1, !tbaa !12, !range !18, !noundef !19
  %22 = trunc i8 %21 to i1
  %23 = load ptr, ptr %14, align 8, !tbaa !16
  call void @_ZN3net18TcpCubicSenderBaseC2EPKNS_9QuicClockEPKNS_8RttStatsEbPNS_19QuicConnectionStatsE(ptr noundef nonnull align 8 dereferenceable(141) %18, ptr noundef %19, ptr noundef %20, i1 noundef zeroext %22, ptr noundef %23)
  store ptr getelementptr inbounds inrange(-16, 216) ({ [29 x ptr] }, ptr @_ZTVN3net19TcpCubicSenderBytesE, i32 0, i32 0, i32 2), ptr %18, align 8, !tbaa !20
  %24 = getelementptr inbounds nuw %"class.net::TcpCubicSenderBytes", ptr %18, i32 0, i32 1
  %25 = load ptr, ptr %9, align 8, !tbaa !8
  invoke void @_ZN3net10CubicBytesC1EPKNS_9QuicClockE(ptr noundef nonnull align 8 dereferenceable(88) %24, ptr noundef %25)
          to label %26 unwind label %47

26:                                               ; preds = %7
  %27 = getelementptr inbounds nuw %"class.net::TcpCubicSenderBytes", ptr %18, i32 0, i32 2
  store i64 0, ptr %27, align 8, !tbaa !22
  %28 = getelementptr inbounds nuw %"class.net::TcpCubicSenderBytes", ptr %18, i32 0, i32 3
  %29 = load i64, ptr %12, align 8, !tbaa !14
  %30 = mul i64 %29, 1460
  store i64 %30, ptr %28, align 8, !tbaa !34
  %31 = getelementptr inbounds nuw %"class.net::TcpCubicSenderBytes", ptr %18, i32 0, i32 4
  store i64 2920, ptr %31, align 8, !tbaa !35
  %32 = getelementptr inbounds nuw %"class.net::TcpCubicSenderBytes", ptr %18, i32 0, i32 5
  %33 = load i64, ptr %13, align 8, !tbaa !14
  %34 = mul i64 %33, 1460
  store i64 %34, ptr %32, align 8, !tbaa !36
  %35 = getelementptr inbounds nuw %"class.net::TcpCubicSenderBytes", ptr %18, i32 0, i32 6
  %36 = load i64, ptr %13, align 8, !tbaa !14
  %37 = mul i64 %36, 1460
  store i64 %37, ptr %35, align 8, !tbaa !37
  %38 = getelementptr inbounds nuw %"class.net::TcpCubicSenderBytes", ptr %18, i32 0, i32 7
  %39 = load i64, ptr %12, align 8, !tbaa !14
  %40 = mul i64 %39, 1460
  store i64 %40, ptr %38, align 8, !tbaa !38
  %41 = getelementptr inbounds nuw %"class.net::TcpCubicSenderBytes", ptr %18, i32 0, i32 8
  %42 = load i64, ptr %13, align 8, !tbaa !14
  %43 = mul i64 %42, 1460
  store i64 %43, ptr %41, align 8, !tbaa !39
  %44 = getelementptr inbounds nuw %"class.net::TcpCubicSenderBytes", ptr %18, i32 0, i32 9
  %45 = getelementptr inbounds nuw %"class.net::TcpCubicSenderBytes", ptr %18, i32 0, i32 4
  %46 = load i64, ptr %45, align 8, !tbaa !35
  store i64 %46, ptr %44, align 8, !tbaa !40
  ret void

47:                                               ; preds = %7
  %48 = landingpad { ptr, i32 }
          cleanup
  %49 = extractvalue { ptr, i32 } %48, 0
  store ptr %49, ptr %15, align 8
  %50 = extractvalue { ptr, i32 } %48, 1
  store i32 %50, ptr %16, align 4
  call void @_ZN3net18TcpCubicSenderBaseD2Ev(ptr noundef nonnull align 8 dereferenceable(141) %18) #9
  br label %51

51:                                               ; preds = %47
  %52 = load ptr, ptr %15, align 8
  %53 = load i32, ptr %16, align 4
  %54 = insertvalue { ptr, i32 } poison, ptr %52, 0
  %55 = insertvalue { ptr, i32 } %54, i32 %53, 1
  resume { ptr, i32 } %55
}