; Function Attrs: mustprogress uwtable
define void @_ZN3net19TcpCubicSenderBytesC2EPKNS_9QuicClockEPKNS_8RttStatsEbmmPNS_19QuicConnectionStatsE(ptr noundef nonnull align 8 dereferenceable(296) %0, ptr noundef %1, ptr noundef %2, i1 noundef zeroext %3, i64 noundef %4, i64 noundef %5, ptr noundef %6) unnamed_addr #0 align 2 personality ptr @__gxx_personality_v0 {
  tail call void @_ZN3net18TcpCubicSenderBaseC2EPKNS_9QuicClockEPKNS_8RttStatsEbPNS_19QuicConnectionStatsE(ptr noundef nonnull align 8 dereferenceable(141) %0, ptr noundef %1, ptr noundef %2, i1 noundef zeroext %3, ptr noundef %6)
  store ptr getelementptr inbounds nuw inrange(-16, 216) (i8, ptr @_ZTVN3net19TcpCubicSenderBytesE, i64 16), ptr %0, align 8, !tbaa !3
  %8 = getelementptr inbounds nuw i8, ptr %0, i64 144
  invoke void @_ZN3net10CubicBytesC1EPKNS_9QuicClockE(ptr noundef nonnull align 8 dereferenceable(88) %8, ptr noundef %1)
          to label %9 unwind label %20

9:                                                ; preds = %7
  %10 = getelementptr inbounds nuw i8, ptr %0, i64 232
  store i64 0, ptr %10, align 8, !tbaa !6
  %11 = getelementptr inbounds nuw i8, ptr %0, i64 240
  %12 = mul i64 %4, 1460
  store i64 %12, ptr %11, align 8, !tbaa !25
  %13 = getelementptr inbounds nuw i8, ptr %0, i64 248
  store i64 2920, ptr %13, align 8, !tbaa !26
  %14 = getelementptr inbounds nuw i8, ptr %0, i64 256
  %15 = mul i64 %5, 1460
  store i64 %15, ptr %14, align 8, !tbaa !27
  %16 = getelementptr inbounds nuw i8, ptr %0, i64 264
  store i64 %15, ptr %16, align 8, !tbaa !28
  %17 = getelementptr inbounds nuw i8, ptr %0, i64 272
  store i64 %12, ptr %17, align 8, !tbaa !29
  %18 = getelementptr inbounds nuw i8, ptr %0, i64 280
  store i64 %15, ptr %18, align 8, !tbaa !30
  %19 = getelementptr inbounds nuw i8, ptr %0, i64 288
  store i64 2920, ptr %19, align 8, !tbaa !31
  ret void

20:                                               ; preds = %7
  %21 = landingpad { ptr, i32 }
          cleanup
  tail call void @_ZN3net18TcpCubicSenderBaseD2Ev(ptr noundef nonnull align 8 dereferenceable(141) %0) #10
  resume { ptr, i32 } %21
}